; Function Attrs: mustprogress nounwind uwtable
define internal fastcc void @_ZN12_GLOBAL__N_111DeclPrinter25VisitObjCCategoryImplDeclEPN5clang20ObjCCategoryImplDeclE(ptr noundef nonnull align 8 dereferenceable(37) %0, ptr noundef %1) unnamed_addr #0 align 2 {
  %3 = load ptr, ptr %0, align 8
  %4 = getelementptr inbounds nuw i8, ptr %3, i64 24
  %5 = load ptr, ptr %4, align 8
  %6 = getelementptr inbounds nuw i8, ptr %3, i64 32
  %7 = load ptr, ptr %6, align 8
  %8 = ptrtoint ptr %5 to i64
  %9 = ptrtoint ptr %7 to i64
  %10 = sub i64 %8, %9
  %11 = icmp ult i64 %10, 16
  br i1 %11, label %12, label %14

12:                                               ; preds = %2
  %13 = tail call noundef nonnull align 8 dereferenceable(48) ptr @_ZN4llvm11raw_ostream5writeEPKcm(ptr noundef nonnull align 8 dereferenceable(48) %3, ptr noundef nonnull @.str.55, i64 noundef 16) #14
  br label %_ZN4llvm11raw_ostreamlsEPKc.exit

14:                                               ; preds = %2
  tail call void @llvm.memcpy.p0.p0.i64(ptr noundef nonnull align 1 dereferenceable(16) %7, ptr noundef nonnull align 1 dereferenceable(16) @.str.55, i64 16, i1 false)
  %15 = load ptr, ptr %6, align 8
  %16 = getelementptr inbounds i8, ptr %15, i64 16
  store ptr %16, ptr %6, align 8
  br label %_ZN4llvm11raw_ostreamlsEPKc.exit

_ZN4llvm11raw_ostreamlsEPKc.exit:                 ; preds = %12, %14
  %17 = getelementptr inbounds nuw i8, ptr %1, i64 88
  %18 = load ptr, ptr %17, align 8
  %.not = icmp eq ptr %18, null
  %19 = load ptr, ptr %0, align 8
  br i1 %.not, label %21, label %20

20:                                               ; preds = %_ZN4llvm11raw_ostreamlsEPKc.exit
  tail call void @_ZNK5clang9NamedDecl9printNameERN4llvm11raw_ostreamE(ptr noundef nonnull align 8 dereferenceable(48) %18, ptr noundef nonnull align 8 dereferenceable(48) %19) #14
  br label %_ZN4llvm11raw_ostreamlsEPKc.exit8

21:                                               ; preds = %_ZN4llvm11raw_ostreamlsEPKc.exit
  %22 = getelementptr inbounds nuw i8, ptr %19, i64 24
  %23 = load ptr, ptr %22, align 8
  %24 = getelementptr inbounds nuw i8, ptr %19, i64 32
  %25 = load ptr, ptr %24, align 8
  %26 = ptrtoint ptr %23 to i64
  %27 = ptrtoint ptr %25 to i64
  %28 = sub i64 %26, %27
  %29 = icmp ult i64 %28, 14
  br i1 %29, label %30, label %32

30:                                               ; preds = %21
  %31 = tail call noundef nonnull align 8 dereferenceable(48) ptr @_ZN4llvm11raw_ostream5writeEPKcm(ptr noundef nonnull align 8 dereferenceable(48) %19, ptr noundef nonnull @.str.56, i64 noundef 14) #14
  br label %_ZN4llvm11raw_ostreamlsEPKc.exit8

32:                                               ; preds = %21
  tail call void @llvm.memcpy.p0.p0.i64(ptr noundef nonnull align 1 dereferenceable(14) %25, ptr noundef nonnull align 1 dereferenceable(14) @.str.56, i64 14, i1 false)
  %33 = load ptr, ptr %24, align 8
  %34 = getelementptr inbounds i8, ptr %33, i64 14
  store ptr %34, ptr %24, align 8
  br label %_ZN4llvm11raw_ostreamlsEPKc.exit8

_ZN4llvm11raw_ostreamlsEPKc.exit8:                ; preds = %32, %30, %20
  %35 = load ptr, ptr %0, align 8
  %36 = getelementptr inbounds nuw i8, ptr %35, i64 32
  %37 = load ptr, ptr %36, align 8
  %38 = getelementptr inbounds nuw i8, ptr %35, i64 24
  %39 = load ptr, ptr %38, align 8
  %.not.i = icmp ult ptr %37, %39
  br i1 %.not.i, label %42, label %40

40:                                               ; preds = %_ZN4llvm11raw_ostreamlsEPKc.exit8
  %41 = tail call noundef nonnull align 8 dereferenceable(48) ptr @_ZN4llvm11raw_ostream5writeEh(ptr noundef nonnull align 8 dereferenceable(48) %35, i8 noundef zeroext 40) #14
  br label %_ZN4llvm11raw_ostreamlsEc.exit

42:                                               ; preds = %_ZN4llvm11raw_ostreamlsEPKc.exit8
  %43 = getelementptr inbounds i8, ptr %37, i64 1
  store ptr %43, ptr %36, align 8
  store i8 40, ptr %37, align 1
  br label %_ZN4llvm11raw_ostreamlsEc.exit

_ZN4llvm11raw_ostreamlsEc.exit:                   ; preds = %40, %42
  %.0.i = phi ptr [ %41, %40 ], [ %35, %42 ]
  %44 = tail call noundef nonnull align 8 dereferenceable(48) ptr @_ZN5clanglsERN4llvm11raw_ostreamERKNS_20ObjCCategoryImplDeclE(ptr noundef nonnull align 8 dereferenceable(48) %.0.i, ptr noundef nonnull align 8 dereferenceable(100) %1) #14
  %45 = getelementptr inbounds nuw i8, ptr %44, i64 24
  %46 = load ptr, ptr %45, align 8
  %47 = getelementptr inbounds nuw i8, ptr %44, i64 32
  %48 = load ptr, ptr %47, align 8
  %49 = ptrtoint ptr %46 to i64
  %50 = ptrtoint ptr %48 to i64
  %51 = sub i64 %49, %50
  %52 = icmp ult i64 %51, 2
  br i1 %52, label %53, label %55

53:                                               ; preds = %_ZN4llvm11raw_ostreamlsEc.exit
  %54 = tail call noundef nonnull align 8 dereferenceable(48) ptr @_ZN4llvm11raw_ostream5writeEPKcm(ptr noundef nonnull align 8 dereferenceable(48) %44, ptr noundef nonnull @.str.57, i64 noundef 2) #14
  br label %_ZN4llvm11raw_ostreamlsEPKc.exit11

55:                                               ; preds = %_ZN4llvm11raw_ostreamlsEc.exit
  store i16 2601, ptr %48, align 1
  %56 = load ptr, ptr %47, align 8
  %57 = getelementptr inbounds i8, ptr %56, i64 2
  store ptr %57, ptr %47, align 8
  br label %_ZN4llvm11raw_ostreamlsEPKc.exit11

_ZN4llvm11raw_ostreamlsEPKc.exit11:               ; preds = %53, %55
  %58 = getelementptr inbounds i8, ptr %1, i64 48
  tail call fastcc void @_ZN12_GLOBAL__N_111DeclPrinter16VisitDeclContextEPN5clang11DeclContextEb(ptr noundef nonnull align 8 dereferenceable(37) %0, ptr noundef nonnull %58, i1 noundef zeroext false)
  %59 = load ptr, ptr %0, align 8
  %60 = getelementptr inbounds nuw i8, ptr %59, i64 24
  %61 = load ptr, ptr %60, align 8
  %62 = getelementptr inbounds nuw i8, ptr %59, i64 32
  %63 = load ptr, ptr %62, align 8
  %64 = ptrtoint ptr %61 to i64
  %65 = ptrtoint ptr %63 to i64
  %66 = sub i64 %64, %65
  %67 = icmp ult i64 %66, 4
  br i1 %67, label %68, label %70

68:                                               ; preds = %_ZN4llvm11raw_ostreamlsEPKc.exit11
  %69 = tail call noundef nonnull align 8 dereferenceable(48) ptr @_ZN4llvm11raw_ostream5writeEPKcm(ptr noundef nonnull align 8 dereferenceable(48) %59, ptr noundef nonnull @.str.45, i64 noundef 4) #14
  br label %_ZN4llvm11raw_ostreamlsEPKc.exit14

70:                                               ; preds = %_ZN4llvm11raw_ostreamlsEPKc.exit11
  store i32 1684956480, ptr %63, align 1
  %71 = load ptr, ptr %62, align 8
  %72 = getelementptr inbounds i8, ptr %71, i64 4
  store ptr %72, ptr %62, align 8
  br label %_ZN4llvm11raw_ostreamlsEPKc.exit14

_ZN4llvm11raw_ostreamlsEPKc.exit14:               ; preds = %68, %70
  ret void
}